target datalayout = "e-m:e-p270:32:32-p271:32:32-p272:64:64-i64:64-i128:128-f80:128-n8:16:32:64-S128"
target triple = "x86_64-pc-linux-gnu"

%class.Node.base = type <{ ptr, ptr, ptr, i32, i32, i32, i32, i32, i32, i32 }>
%class.MemNode = type { %class.Node.base, i8, i8, i8, i8 }
%class.LoadNode = type { %class.MemNode, i32, i32, ptr }

; Function Attrs: mustprogress nounwind uwtable
define hidden noundef zeroext i1 @_ZNK8LoadNode3cmpERK4Node(ptr noundef nonnull align 8 dereferenceable(72) %0, ptr noundef nonnull align 8 dereferenceable(52) %1) unnamed_addr #1 align 2 {
  %3 = alloca ptr, align 8
  %4 = alloca ptr, align 8
  %5 = alloca ptr, align 8
  store ptr %0, ptr %3, align 8
  store ptr %1, ptr %4, align 8
  %6 = load ptr, ptr %3, align 8
  %7 = load ptr, ptr %4, align 8
  store ptr %7, ptr %5, align 8
  %8 = getelementptr inbounds %class.LoadNode, ptr %6, i32 0, i32 3
  %9 = load ptr, ptr %8, align 8
  %10 = load ptr, ptr %5, align 8
  %11 = getelementptr inbounds %class.LoadNode, ptr %10, i32 0, i32 3
  %12 = load ptr, ptr %11, align 8
  %13 = call noundef zeroext i1 @_ZN4Type6equalsEPKS_S1_(ptr noundef %9, ptr noundef %12)
  br i1 %13, label %14, label %28

14:                                               ; preds = %2
  %15 = getelementptr inbounds %class.LoadNode, ptr %6, i32 0, i32 1
  %16 = load i32, ptr %15, align 8
  %17 = load ptr, ptr %5, align 8
  %18 = getelementptr inbounds %class.LoadNode, ptr %17, i32 0, i32 1
  %19 = load i32, ptr %18, align 8
  %20 = icmp eq i32 %16, %19
  br i1 %20, label %21, label %28

21:                                               ; preds = %14
  %22 = getelementptr inbounds %class.LoadNode, ptr %6, i32 0, i32 2
  %23 = load i32, ptr %22, align 4
  %24 = load ptr, ptr %5, align 8
  %25 = getelementptr inbounds %class.LoadNode, ptr %24, i32 0, i32 2
  %26 = load i32, ptr %25, align 4
  %27 = icmp eq i32 %23, %26
  br label %28

28:                                               ; preds = %21, %14, %2
  %29 = phi i1 [ false, %14 ], [ false, %2 ], [ %27, %21 ]
  ret i1 %29
}