; Function Attrs: mustprogress nounwind uwtable
define hidden noundef zeroext i1 @_ZNK8LoadNode3cmpERK4Node(ptr nocapture noundef nonnull readonly align 8 dereferenceable(72) %0, ptr nocapture noundef nonnull readonly align 8 dereferenceable(52) %1) unnamed_addr #1 align 2 {
  %3 = getelementptr inbounds i8, ptr %0, i64 64
  %4 = load ptr, ptr %3, align 8
  %5 = getelementptr inbounds i8, ptr %1, i64 64
  %6 = load ptr, ptr %5, align 8
  %7 = tail call noundef zeroext i1 @_ZN4Type6equalsEPKS_S1_(ptr noundef %4, ptr noundef %6) #13
  br i1 %7, label %8, label %20

8:                                                ; preds = %2
  %9 = getelementptr inbounds i8, ptr %0, i64 56
  %10 = load i32, ptr %9, align 8
  %11 = getelementptr inbounds i8, ptr %1, i64 56
  %12 = load i32, ptr %11, align 8
  %13 = icmp eq i32 %10, %12
  br i1 %13, label %14, label %20

14:                                               ; preds = %8
  %15 = getelementptr inbounds i8, ptr %0, i64 60
  %16 = load i32, ptr %15, align 4
  %17 = getelementptr inbounds i8, ptr %1, i64 60
  %18 = load i32, ptr %17, align 4
  %19 = icmp eq i32 %16, %18
  br label %20

20:                                               ; preds = %14, %8, %2
  %21 = phi i1 [ false, %8 ], [ false, %2 ], [ %19, %14 ]
  ret i1 %21
}